; Function Attrs: mustprogress uwtable
define void @_ZNK8QuantLib7CPISwap12fetchResultsEPKNS_13PricingEngine7resultsE(ptr noundef nonnull align 8 dereferenceable(696) %this, ptr noundef %r) unnamed_addr #8 align 2 {
entry:
  tail call void @_ZNK8QuantLib4Swap12fetchResultsEPKNS_13PricingEngine7resultsE(ptr noundef nonnull align 8 dereferenceable(256) %this, ptr noundef %r)
  %0 = icmp eq ptr %r, null
  br i1 %0, label %if.end.thread, label %dynamic_cast.end

dynamic_cast.end:                                 ; preds = %entry
  %1 = tail call ptr @__dynamic_cast(ptr nonnull %r, ptr nonnull @_ZTIN8QuantLib13PricingEngine7resultsE, ptr nonnull @_ZTIN8QuantLib7CPISwap7resultsE, i64 -1) #28
  %cmp.not = icmp eq ptr %1, null
  br i1 %cmp.not, label %if.end.thread, label %if.end

if.end.thread:                                    ; preds = %dynamic_cast.end, %entry
  %fairRate_2 = getelementptr inbounds nuw i8, ptr %this, i64 688
  store double 0x47EFFFFFE0000000, ptr %fairRate_2, align 8, !tbaa !153
  %fairSpread_5 = getelementptr inbounds nuw i8, ptr %this, i64 680
  store double 0x47EFFFFFE0000000, ptr %fairSpread_5, align 8, !tbaa !154
  br label %if.then10

if.end:                                           ; preds = %dynamic_cast.end
  %fairRate = getelementptr inbounds nuw i8, ptr %1, i64 184
  %2 = load double, ptr %fairRate, align 8, !tbaa !155
  %fairRate_ = getelementptr inbounds nuw i8, ptr %this, i64 688
  store double %2, ptr %fairRate_, align 8, !tbaa !153
  %fairSpread = getelementptr inbounds nuw i8, ptr %1, i64 192
  %3 = load double, ptr %fairSpread, align 8, !tbaa !159
  %fairSpread_ = getelementptr inbounds nuw i8, ptr %this, i64 680
  store double %3, ptr %fairSpread_, align 8, !tbaa !154
  %4 = fcmp oeq double %2, 0x47EFFFFFE0000000
  %5 = fcmp oeq double %3, 0x47EFFFFFE0000000
  br i1 %4, label %if.then10, label %if.end21

if.then10:                                        ; preds = %if.end.thread, %if.end
  %cmp2510 = phi i1 [ true, %if.end.thread ], [ %5, %if.end ]
  %legBPS_ = getelementptr inbounds nuw i8, ptr %this, i64 176
  %6 = load ptr, ptr %legBPS_, align 8, !tbaa !139
  %7 = load double, ptr %6, align 8, !tbaa !140
  %cmp14 = fcmp une double %7, 0x47EFFFFFE0000000
  br i1 %cmp14, label %if.then15, label %if.end21

if.then15:                                        ; preds = %if.then10
  %fairRate_611 = getelementptr inbounds nuw i8, ptr %this, i64 688
  %fixedRate_ = getelementptr inbounds nuw i8, ptr %this, i64 464
  %8 = load double, ptr %fixedRate_, align 8, !tbaa !110
  %NPV_ = getelementptr inbounds nuw i8, ptr %this, i64 16
  %9 = load double, ptr %NPV_, align 8, !tbaa !160
  %div = fdiv double %7, 1.000000e-04
  %div18 = fdiv double %9, %div
  %sub = fsub double %8, %div18
  store double %sub, ptr %fairRate_611, align 8, !tbaa !153
  br i1 %cmp2510, label %if.then26, label %if.end41

if.end21:                                         ; preds = %if.then10, %if.end
  %cmp259 = phi i1 [ %cmp2510, %if.then10 ], [ %5, %if.end ]
  br i1 %cmp259, label %if.then26, label %if.end41

if.then26:                                        ; preds = %if.then15, %if.end21
  %legBPS_27 = getelementptr inbounds nuw i8, ptr %this, i64 176
  %10 = load ptr, ptr %legBPS_27, align 8, !tbaa !139
  %add.ptr.i = getelementptr inbounds nuw i8, ptr %10, i64 8
  %11 = load double, ptr %add.ptr.i, align 8, !tbaa !140
  %cmp31 = fcmp une double %11, 0x47EFFFFFE0000000
  br i1 %cmp31, label %if.then32, label %if.end41

if.then32:                                        ; preds = %if.then26
  %fairSpread_2213 = getelementptr inbounds nuw i8, ptr %this, i64 680
  %spread_ = getelementptr inbounds nuw i8, ptr %this, i64 280
  %12 = load double, ptr %spread_, align 8, !tbaa !99
  %NPV_33 = getelementptr inbounds nuw i8, ptr %this, i64 16
  %13 = load double, ptr %NPV_33, align 8, !tbaa !160
  %div36 = fdiv double %11, 1.000000e-04
  %div37 = fdiv double %13, %div36
  %sub38 = fsub double %12, %div37
  store double %sub38, ptr %fairSpread_2213, align 8, !tbaa !154
  br label %if.end41

if.end41:                                         ; preds = %if.then15, %if.then26, %if.then32, %if.end21
  ret void
}